	.file	"primecomp.cpp"
.lcomm _ZStL8__ioinit,1,1
	.def	__main;	.scl	2;	.type	32;	.endef
	.section .rdata,"dr"
.LC0:
	.ascii "Prime-Composite\0"
.LC1:
	.ascii "Starting Number : 1\0"
.LC2:
	.ascii "Ending Number: 100\0"
.LC3:
	.ascii "\11 Prime\0"
.LC4:
	.ascii "\11 Composite\0"
	.text
	.globl	main
	.def	main;	.scl	2;	.type	32;	.endef
	.seh_proc	main
main:
	pushq	%rbp
	.seh_pushreg	%rbp
	movq	%rsp, %rbp
	subq	$48, %rsp
	.seh_stackalloc	48
	.seh_setframe	%rbp, 48
	.seh_endprologue
	call	__main
	leaq	.LC0(%rip), %rdx
	leaq	_ZSt4cout(%rip), %rcx
	call	_ZStlsISt11char_traitsIcEERSt13basic_ostreamIcT_ES5_PKc
	leaq	_ZSt4endlIcSt11char_traitsIcEERSt13basic_ostreamIT_T0_ES6_(%rip), %rdx
	movq	%rax, %rcx
	call	_ZNSolsEPFRSoS_E
	leaq	_ZSt4endlIcSt11char_traitsIcEERSt13basic_ostreamIT_T0_ES6_(%rip), %rdx
	movq	%rax, %rcx
	call	_ZNSolsEPFRSoS_E
	leaq	.LC1(%rip), %rdx
	leaq	_ZSt4cout(%rip), %rcx
	call	_ZStlsISt11char_traitsIcEERSt13basic_ostreamIcT_ES5_PKc
	leaq	_ZSt4endlIcSt11char_traitsIcEERSt13basic_ostreamIT_T0_ES6_(%rip), %rdx
	movq	%rax, %rcx
	call	_ZNSolsEPFRSoS_E
	leaq	.LC2(%rip), %rdx
	leaq	_ZSt4cout(%rip), %rcx
	call	_ZStlsISt11char_traitsIcEERSt13basic_ostreamIcT_ES5_PKc
	leaq	_ZSt4endlIcSt11char_traitsIcEERSt13basic_ostreamIT_T0_ES6_(%rip), %rdx
	movq	%rax, %rcx
	call	_ZNSolsEPFRSoS_E
	movl	$1, -4(%rbp)
	jmp	.L2
.L9:
	movl	$1, -12(%rbp)
	movl	$2, -8(%rbp)
	jmp	.L3
.L6:
	movl	-4(%rbp), %eax
	movl	%eax, %edx
	sarl	$31, %edx
	idivl	-8(%rbp)
	movl	%edx, %eax
	testl	%eax, %eax
	jne	.L4
	movl	$0, -12(%rbp)
	jmp	.L5
.L4:
	addl	$1, -8(%rbp)
.L3:
	movl	-8(%rbp), %eax
	cmpl	-4(%rbp), %eax
	setl	%al
	testb	%al, %al
	jne	.L6
.L5:
	cmpl	$1, -12(%rbp)
	jne	.L7
	movl	-4(%rbp), %eax
	movl	%eax, %edx
	leaq	_ZSt4cout(%rip), %rcx
	call	_ZNSolsEi
	leaq	.LC3(%rip), %rdx
	movq	%rax, %rcx
	call	_ZStlsISt11char_traitsIcEERSt13basic_ostreamIcT_ES5_PKc
	leaq	_ZSt4endlIcSt11char_traitsIcEERSt13basic_ostreamIT_T0_ES6_(%rip), %rdx
	movq	%rax, %rcx
	call	_ZNSolsEPFRSoS_E
	jmp	.L8
.L7:
	movl	-4(%rbp), %eax
	movl	%eax, %edx
	leaq	_ZSt4cout(%rip), %rcx
	call	_ZNSolsEi
	leaq	.LC4(%rip), %rdx
	movq	%rax, %rcx
	call	_ZStlsISt11char_traitsIcEERSt13basic_ostreamIcT_ES5_PKc
	leaq	_ZSt4endlIcSt11char_traitsIcEERSt13basic_ostreamIT_T0_ES6_(%rip), %rdx
	movq	%rax, %rcx
	call	_ZNSolsEPFRSoS_E
.L8:
	addl	$1, -4(%rbp)
.L2:
	cmpl	$1000, -4(%rbp)
	setle	%al
	testb	%al, %al
	jne	.L9
	movl	$0, %eax
	addq	$48, %rsp
	popq	%rbp
	ret
	.seh_endproc
	.def	__tcf_0;	.scl	3;	.type	32;	.endef
	.seh_proc	__tcf_0
__tcf_0:
	pushq	%rbp
	.seh_pushreg	%rbp
	movq	%rsp, %rbp
	subq	$32, %rsp
	.seh_stackalloc	32
	.seh_setframe	%rbp, 32
	.seh_endprologue
	leaq	_ZStL8__ioinit(%rip), %rcx
	call	_ZNSt8ios_base4InitD1Ev
	nop
	addq	$32, %rsp
	popq	%rbp
	ret
	.seh_endproc
	.def	_Z41__static_initialization_and_destruction_0ii;	.scl	3;	.type	32;	.endef
	.seh_proc	_Z41__static_initialization_and_destruction_0ii
_Z41__static_initialization_and_destruction_0ii:
	pushq	%rbp
	.seh_pushreg	%rbp
	movq	%rsp, %rbp
	subq	$32, %rsp
	.seh_stackalloc	32
	.seh_setframe	%rbp, 32
	.seh_endprologue
	movl	%ecx, 16(%rbp)
	movl	%edx, 24(%rbp)
	cmpl	$1, 16(%rbp)
	jne	.L12
	cmpl	$65535, 24(%rbp)
	jne	.L12
	leaq	_ZStL8__ioinit(%rip), %rcx
	call	_ZNSt8ios_base4InitC1Ev
	leaq	__tcf_0(%rip), %rcx
	call	atexit
	nop
.L12:
	addq	$32, %rsp
	popq	%rbp
	ret
	.seh_endproc
	.def	_GLOBAL__sub_I_main;	.scl	3;	.type	32;	.endef
	.seh_proc	_GLOBAL__sub_I_main
_GLOBAL__sub_I_main:
	pushq	%rbp
	.seh_pushreg	%rbp
	movq	%rsp, %rbp
	subq	$32, %rsp
	.seh_stackalloc	32
	.seh_setframe	%rbp, 32
	.seh_endprologue
	movl	$65535, %edx
	movl	$1, %ecx
	call	_Z41__static_initialization_and_destruction_0ii
	nop
	addq	$32, %rsp
	popq	%rbp
	ret
	.seh_endproc
	.section	.ctors,"w"
	.align 8
	.quad	_GLOBAL__sub_I_main
	.def	_ZSt4endlIcSt11char_traitsIcEERSt13basic_ostreamIT_T0_ES6_;	.scl	2;	.type	32;	.endef
	.def	_ZStlsISt11char_traitsIcEERSt13basic_ostreamIcT_ES5_PKc;	.scl	2;	.type	32;	.endef
	.def	_ZNSolsEPFRSoS_E;	.scl	2;	.type	32;	.endef
	.def	_ZNSolsEi;	.scl	2;	.type	32;	.endef
	.def	_ZNSt8ios_base4InitD1Ev;	.scl	2;	.type	32;	.endef
	.def	_ZNSt8ios_base4InitC1Ev;	.scl	2;	.type	32;	.endef
	.def	atexit;	.scl	2;	.type	32;	.endef
